target datalayout = "e-m:e-p270:32:32-p271:32:32-p272:64:64-i64:64-i128:128-f80:128-n8:16:32:64-S128"
target triple = "x86_64-pc-linux-gnu"

%struct.InterpFilterParams = type { ptr, i16, i8 }
%struct.ConvolveParams = type { i32, ptr, i32, i32, i32, i32, i32, i32, i32, i32 }

; Function Attrs: nounwind uwtable
define internal zeroext i8 @clip_pixel(i32 noundef %0) #0 {
  %2 = alloca i32, align 4
  store i32 %0, ptr %2, align 4
  %3 = load i32, ptr %2, align 4
  %4 = icmp sgt i32 %3, 255
  br i1 %4, label %5, label %6

5:                                                ; preds = %1
  br label %14

6:                                                ; preds = %1
  %7 = load i32, ptr %2, align 4
  %8 = icmp slt i32 %7, 0
  br i1 %8, label %9, label %10

9:                                                ; preds = %6
  br label %12

10:                                               ; preds = %6
  %11 = load i32, ptr %2, align 4
  br label %12

12:                                               ; preds = %10, %9
  %13 = phi i32 [ 0, %9 ], [ %11, %10 ]
  br label %14

14:                                               ; preds = %12, %5
  %15 = phi i32 [ 255, %5 ], [ %13, %12 ]
  %16 = trunc i32 %15 to i8
  ret i8 %16
}

; Function Attrs: nounwind uwtable
define internal ptr @av1_get_interp_filter_subpel_kernel(ptr noundef %0, i32 noundef %1) #0 {
  %3 = alloca ptr, align 8
  %4 = alloca i32, align 4
  store ptr %0, ptr %3, align 8
  store i32 %1, ptr %4, align 4
  %5 = load ptr, ptr %3, align 8
  %6 = getelementptr inbounds nuw %struct.InterpFilterParams, ptr %5, i32 0, i32 0
  %7 = load ptr, ptr %6, align 8
  %8 = load ptr, ptr %3, align 8
  %9 = getelementptr inbounds nuw %struct.InterpFilterParams, ptr %8, i32 0, i32 1
  %10 = load i16, ptr %9, align 8
  %11 = zext i16 %10 to i32
  %12 = load i32, ptr %4, align 4
  %13 = mul nsw i32 %11, %12
  %14 = sext i32 %13 to i64
  %15 = getelementptr inbounds i16, ptr %7, i64 %14
  ret ptr %15
}

; Function Attrs: nounwind uwtable
define hidden void @av1_dist_wtd_convolve_y_c(ptr noundef %0, i32 noundef %1, ptr noundef %2, i32 noundef %3, i32 noundef %4, i32 noundef %5, ptr noundef %6, i32 noundef %7, ptr noundef %8) #0 {
  %10 = alloca ptr, align 8
  %11 = alloca i32, align 4
  %12 = alloca ptr, align 8
  %13 = alloca i32, align 4
  %14 = alloca i32, align 4
  %15 = alloca i32, align 4
  %16 = alloca ptr, align 8
  %17 = alloca i32, align 4
  %18 = alloca ptr, align 8
  %19 = alloca ptr, align 8
  %20 = alloca i32, align 4
  %21 = alloca i32, align 4
  %22 = alloca i32, align 4
  %23 = alloca i32, align 4
  %24 = alloca i32, align 4
  %25 = alloca i32, align 4
  %26 = alloca i32, align 4
  %27 = alloca ptr, align 8
  %28 = alloca i32, align 4
  %29 = alloca i32, align 4
  %30 = alloca i32, align 4
  %31 = alloca i32, align 4
  %32 = alloca i32, align 4
  store ptr %0, ptr %10, align 8
  store i32 %1, ptr %11, align 4
  store ptr %2, ptr %12, align 8
  store i32 %3, ptr %13, align 4
  store i32 %4, ptr %14, align 4
  store i32 %5, ptr %15, align 4
  store ptr %6, ptr %16, align 8
  store i32 %7, ptr %17, align 4
  store ptr %8, ptr %18, align 8
  %33 = load ptr, ptr %18, align 8
  %34 = getelementptr inbounds nuw %struct.ConvolveParams, ptr %33, i32 0, i32 1
  %35 = load ptr, ptr %34, align 8
  store ptr %35, ptr %19, align 8
  %36 = load ptr, ptr %18, align 8
  %37 = getelementptr inbounds nuw %struct.ConvolveParams, ptr %36, i32 0, i32 2
  %38 = load i32, ptr %37, align 8
  store i32 %38, ptr %20, align 4
  %39 = load ptr, ptr %16, align 8
  %40 = getelementptr inbounds nuw %struct.InterpFilterParams, ptr %39, i32 0, i32 1
  %41 = load i16, ptr %40, align 8
  %42 = zext i16 %41 to i32
  %43 = sdiv i32 %42, 2
  %44 = sub nsw i32 %43, 1
  store i32 %44, ptr %21, align 4
  %45 = load ptr, ptr %18, align 8
  %46 = getelementptr inbounds nuw %struct.ConvolveParams, ptr %45, i32 0, i32 3
  %47 = load i32, ptr %46, align 4
  %48 = sub nsw i32 7, %47
  store i32 %48, ptr %22, align 4
  store i32 8, ptr %23, align 4
  %49 = load ptr, ptr %18, align 8
  %50 = getelementptr inbounds nuw %struct.ConvolveParams, ptr %49, i32 0, i32 3
  %51 = load i32, ptr %50, align 4
  %52 = sub nsw i32 22, %51
  store i32 %52, ptr %24, align 4
  %53 = load i32, ptr %24, align 4
  %54 = load ptr, ptr %18, align 8
  %55 = getelementptr inbounds nuw %struct.ConvolveParams, ptr %54, i32 0, i32 4
  %56 = load i32, ptr %55, align 8
  %57 = sub nsw i32 %53, %56
  %58 = shl i32 1, %57
  %59 = load i32, ptr %24, align 4
  %60 = load ptr, ptr %18, align 8
  %61 = getelementptr inbounds nuw %struct.ConvolveParams, ptr %60, i32 0, i32 4
  %62 = load i32, ptr %61, align 8
  %63 = sub nsw i32 %59, %62
  %64 = sub nsw i32 %63, 1
  %65 = shl i32 1, %64
  %66 = add nsw i32 %58, %65
  store i32 %66, ptr %25, align 4
  %67 = load ptr, ptr %18, align 8
  %68 = getelementptr inbounds nuw %struct.ConvolveParams, ptr %67, i32 0, i32 3
  %69 = load i32, ptr %68, align 4
  %70 = sub nsw i32 14, %69
  %71 = load ptr, ptr %18, align 8
  %72 = getelementptr inbounds nuw %struct.ConvolveParams, ptr %71, i32 0, i32 4
  %73 = load i32, ptr %72, align 8
  %74 = sub nsw i32 %70, %73
  store i32 %74, ptr %26, align 4
  %75 = load ptr, ptr %16, align 8
  %76 = load i32, ptr %17, align 4
  %77 = and i32 %76, 15
  %78 = call ptr @av1_get_interp_filter_subpel_kernel(ptr noundef %75, i32 noundef %77)
  store ptr %78, ptr %27, align 8
  store i32 0, ptr %28, align 4
  br label %79

79:                                               ; preds = %216, %9
  %80 = load i32, ptr %28, align 4
  %81 = load i32, ptr %15, align 4
  %82 = icmp slt i32 %80, %81
  br i1 %82, label %83, label %219

83:                                               ; preds = %79
  store i32 0, ptr %29, align 4
  br label %84

84:                                               ; preds = %212, %83
  %85 = load i32, ptr %29, align 4
  %86 = load i32, ptr %14, align 4
  %87 = icmp slt i32 %85, %86
  br i1 %87, label %88, label %215

88:                                               ; preds = %84
  store i32 0, ptr %30, align 4
  store i32 0, ptr %31, align 4
  br label %89

89:                                               ; preds = %120, %88
  %90 = load i32, ptr %31, align 4
  %91 = load ptr, ptr %16, align 8
  %92 = getelementptr inbounds nuw %struct.InterpFilterParams, ptr %91, i32 0, i32 1
  %93 = load i16, ptr %92, align 8
  %94 = zext i16 %93 to i32
  %95 = icmp slt i32 %90, %94
  br i1 %95, label %96, label %123

96:                                               ; preds = %89
  %97 = load ptr, ptr %27, align 8
  %98 = load i32, ptr %31, align 4
  %99 = sext i32 %98 to i64
  %100 = getelementptr inbounds i16, ptr %97, i64 %99
  %101 = load i16, ptr %100, align 2
  %102 = sext i16 %101 to i32
  %103 = load ptr, ptr %10, align 8
  %104 = load i32, ptr %28, align 4
  %105 = load i32, ptr %21, align 4
  %106 = sub nsw i32 %104, %105
  %107 = load i32, ptr %31, align 4
  %108 = add nsw i32 %106, %107
  %109 = load i32, ptr %11, align 4
  %110 = mul nsw i32 %108, %109
  %111 = load i32, ptr %29, align 4
  %112 = add nsw i32 %110, %111
  %113 = sext i32 %112 to i64
  %114 = getelementptr inbounds i8, ptr %103, i64 %113
  %115 = load i8, ptr %114, align 1
  %116 = zext i8 %115 to i32
  %117 = mul nsw i32 %102, %116
  %118 = load i32, ptr %30, align 4
  %119 = add nsw i32 %118, %117
  store i32 %119, ptr %30, align 4
  br label %120

120:                                              ; preds = %96
  %121 = load i32, ptr %31, align 4
  %122 = add nsw i32 %121, 1
  store i32 %122, ptr %31, align 4
  br label %89, !llvm.loop !35

123:                                              ; preds = %89
  %124 = load i32, ptr %22, align 4
  %125 = shl i32 1, %124
  %126 = load i32, ptr %30, align 4
  %127 = mul nsw i32 %126, %125
  store i32 %127, ptr %30, align 4
  %128 = load i32, ptr %30, align 4
  %129 = load ptr, ptr %18, align 8
  %130 = getelementptr inbounds nuw %struct.ConvolveParams, ptr %129, i32 0, i32 4
  %131 = load i32, ptr %130, align 8
  %132 = shl i32 1, %131
  %133 = ashr i32 %132, 1
  %134 = add nsw i32 %128, %133
  %135 = load ptr, ptr %18, align 8
  %136 = getelementptr inbounds nuw %struct.ConvolveParams, ptr %135, i32 0, i32 4
  %137 = load i32, ptr %136, align 8
  %138 = ashr i32 %134, %137
  %139 = load i32, ptr %25, align 4
  %140 = add nsw i32 %138, %139
  store i32 %140, ptr %30, align 4
  %141 = load ptr, ptr %18, align 8
  %142 = getelementptr inbounds nuw %struct.ConvolveParams, ptr %141, i32 0, i32 0
  %143 = load i32, ptr %142, align 8
  %144 = icmp ne i32 %143, 0
  br i1 %144, label %145, label %200

145:                                              ; preds = %123
  %146 = load ptr, ptr %19, align 8
  %147 = load i32, ptr %28, align 4
  %148 = load i32, ptr %20, align 4
  %149 = mul nsw i32 %147, %148
  %150 = load i32, ptr %29, align 4
  %151 = add nsw i32 %149, %150
  %152 = sext i32 %151 to i64
  %153 = getelementptr inbounds i16, ptr %146, i64 %152
  %154 = load i16, ptr %153, align 2
  %155 = zext i16 %154 to i32
  store i32 %155, ptr %32, align 4
  %156 = load ptr, ptr %18, align 8
  %157 = getelementptr inbounds nuw %struct.ConvolveParams, ptr %156, i32 0, i32 7
  %158 = load i32, ptr %157, align 4
  %159 = icmp ne i32 %158, 0
  br i1 %159, label %160, label %174

160:                                              ; preds = %145
  %161 = load i32, ptr %32, align 4
  %162 = load ptr, ptr %18, align 8
  %163 = getelementptr inbounds nuw %struct.ConvolveParams, ptr %162, i32 0, i32 8
  %164 = load i32, ptr %163, align 8
  %165 = mul nsw i32 %161, %164
  %166 = load i32, ptr %30, align 4
  %167 = load ptr, ptr %18, align 8
  %168 = getelementptr inbounds nuw %struct.ConvolveParams, ptr %167, i32 0, i32 9
  %169 = load i32, ptr %168, align 4
  %170 = mul nsw i32 %166, %169
  %171 = add nsw i32 %165, %170
  store i32 %171, ptr %32, align 4
  %172 = load i32, ptr %32, align 4
  %173 = ashr i32 %172, 4
  store i32 %173, ptr %32, align 4
  br label %180

174:                                              ; preds = %145
  %175 = load i32, ptr %30, align 4
  %176 = load i32, ptr %32, align 4
  %177 = add nsw i32 %176, %175
  store i32 %177, ptr %32, align 4
  %178 = load i32, ptr %32, align 4
  %179 = ashr i32 %178, 1
  store i32 %179, ptr %32, align 4
  br label %180

180:                                              ; preds = %174, %160
  %181 = load i32, ptr %25, align 4
  %182 = load i32, ptr %32, align 4
  %183 = sub nsw i32 %182, %181
  store i32 %183, ptr %32, align 4
  %184 = load i32, ptr %32, align 4
  %185 = load i32, ptr %26, align 4
  %186 = shl i32 1, %185
  %187 = ashr i32 %186, 1
  %188 = add nsw i32 %184, %187
  %189 = load i32, ptr %26, align 4
  %190 = ashr i32 %188, %189
  %191 = call zeroext i8 @clip_pixel(i32 noundef %190)
  %192 = load ptr, ptr %12, align 8
  %193 = load i32, ptr %28, align 4
  %194 = load i32, ptr %13, align 4
  %195 = mul nsw i32 %193, %194
  %196 = load i32, ptr %29, align 4
  %197 = add nsw i32 %195, %196
  %198 = sext i32 %197 to i64
  %199 = getelementptr inbounds i8, ptr %192, i64 %198
  store i8 %191, ptr %199, align 1
  br label %211

200:                                              ; preds = %123
  %201 = load i32, ptr %30, align 4
  %202 = trunc i32 %201 to i16
  %203 = load ptr, ptr %19, align 8
  %204 = load i32, ptr %28, align 4
  %205 = load i32, ptr %20, align 4
  %206 = mul nsw i32 %204, %205
  %207 = load i32, ptr %29, align 4
  %208 = add nsw i32 %206, %207
  %209 = sext i32 %208 to i64
  %210 = getelementptr inbounds i16, ptr %203, i64 %209
  store i16 %202, ptr %210, align 2
  br label %211

211:                                              ; preds = %200, %180
  br label %212

212:                                              ; preds = %211
  %213 = load i32, ptr %29, align 4
  %214 = add nsw i32 %213, 1
  store i32 %214, ptr %29, align 4
  br label %84, !llvm.loop !36

215:                                              ; preds = %84
  br label %216

216:                                              ; preds = %215
  %217 = load i32, ptr %28, align 4
  %218 = add nsw i32 %217, 1
  store i32 %218, ptr %28, align 4
  br label %79, !llvm.loop !37

219:                                              ; preds = %79
  ret void
}