; Function Attrs: nofree norecurse nosync nounwind memory(readwrite, inaccessiblemem: none) uwtable
define hidden void @av1_dist_wtd_convolve_y_c(ptr noundef readonly captures(none) %0, i32 noundef %1, ptr noundef writeonly captures(none) %2, i32 noundef %3, i32 noundef %4, i32 noundef %5, ptr noundef readonly captures(none) %6, i32 noundef %7, ptr noundef readonly captures(none) %8) local_unnamed_addr #2 {
  %10 = getelementptr inbounds nuw i8, ptr %8, i64 8
  %11 = load ptr, ptr %10, align 8
  %12 = getelementptr inbounds nuw i8, ptr %8, i64 16
  %13 = load i32, ptr %12, align 8
  %14 = getelementptr inbounds nuw i8, ptr %6, i64 8
  %15 = load i16, ptr %14, align 8
  %16 = getelementptr inbounds nuw i8, ptr %8, i64 20
  %17 = load i32, ptr %16, align 4
  %18 = sub nsw i32 7, %17
  %19 = getelementptr inbounds nuw i8, ptr %8, i64 24
  %20 = load i32, ptr %19, align 8
  %21 = add i32 %20, %17
  %22 = sub i32 22, %21
  %23 = shl nuw i32 1, %22
  %24 = sub i32 21, %21
  %25 = shl nuw i32 1, %24
  %26 = add nsw i32 %23, %25
  %27 = sub i32 14, %21
  %28 = and i32 %7, 15
  %.val = load ptr, ptr %6, align 8
  %29 = zext i16 %15 to i32
  %30 = mul nuw nsw i32 %28, %29
  %31 = zext nneg i32 %30 to i64
  %32 = getelementptr inbounds nuw i16, ptr %.val, i64 %31
  %33 = icmp sgt i32 %5, 0
  br i1 %33, label %.preheader72.lr.ph, label %._crit_edge78

.preheader72.lr.ph:                               ; preds = %9
  %34 = icmp sgt i32 %4, 0
  %35 = getelementptr inbounds nuw i8, ptr %8, i64 36
  %36 = getelementptr inbounds nuw i8, ptr %8, i64 40
  %37 = getelementptr inbounds nuw i8, ptr %8, i64 44
  %38 = shl nuw i32 1, %27
  %39 = ashr i32 %38, 1
  %40 = sub i32 %39, %26
  br i1 %34, label %.preheader72.us.preheader, label %._crit_edge78

.preheader72.us.preheader:                        ; preds = %.preheader72.lr.ph
  %41 = lshr i16 %15, 1
  %42 = sext i32 %1 to i64
  %43 = sext i32 %13 to i64
  %44 = sext i32 %3 to i64
  %45 = zext nneg i16 %41 to i64
  %wide.trip.count92 = zext nneg i32 %5 to i64
  %wide.trip.count85 = zext nneg i32 %4 to i64
  br label %.preheader72.us

.preheader72.us:                                  ; preds = %.preheader72.us.preheader, %._crit_edge76.us
  %indvars.iv87 = phi i64 [ 0, %.preheader72.us.preheader ], [ %indvars.iv.next88, %._crit_edge76.us ]
  %46 = sub nsw i64 %indvars.iv87, %45
  %47 = add nsw i64 %46, 1
  %48 = mul nsw i64 %indvars.iv87, %43
  %49 = mul nsw i64 %indvars.iv87, %44
  %invariant.gep94 = getelementptr i16, ptr %11, i64 %48
  %invariant.gep96 = getelementptr i8, ptr %2, i64 %49
  %invariant.gep98 = getelementptr i16, ptr %11, i64 %48
  br label %.preheader.us

._crit_edge.us:                                   ; preds = %.lr.ph.us, %.preheader.us
  %.065.lcssa.us = phi i32 [ 0, %.preheader.us ], [ %89, %.lr.ph.us ]
  %50 = shl i32 %.065.lcssa.us, %18
  %51 = load i32, ptr %19, align 8
  %52 = shl nuw i32 1, %51
  %53 = ashr i32 %52, 1
  %54 = add nsw i32 %53, %50
  %55 = ashr i32 %54, %51
  %56 = add nsw i32 %55, %26
  %57 = load i32, ptr %8, align 8
  %.not.us = icmp eq i32 %57, 0
  br i1 %.not.us, label %78, label %58

58:                                               ; preds = %._crit_edge.us
  %gep95 = getelementptr i16, ptr %invariant.gep94, i64 %indvars.iv82
  %59 = load i16, ptr %gep95, align 2
  %60 = zext i16 %59 to i32
  %61 = load i32, ptr %35, align 4
  %.not68.us = icmp eq i32 %61, 0
  br i1 %.not68.us, label %69, label %62

62:                                               ; preds = %58
  %63 = load i32, ptr %36, align 8
  %64 = mul nsw i32 %63, %60
  %65 = load i32, ptr %37, align 4
  %66 = mul nsw i32 %65, %56
  %67 = add nsw i32 %66, %64
  %68 = ashr i32 %67, 4
  br label %72

69:                                               ; preds = %58
  %70 = add nsw i32 %56, %60
  %71 = ashr i32 %70, 1
  br label %72

72:                                               ; preds = %69, %62
  %.0.us = phi i32 [ %68, %62 ], [ %71, %69 ]
  %73 = add i32 %40, %.0.us
  %74 = ashr i32 %73, %27
  %75 = tail call i32 @llvm.smax.i32(i32 %74, i32 0)
  %76 = tail call i32 @llvm.umin.i32(i32 %75, i32 255)
  %77 = trunc nuw i32 %76 to i8
  %gep97 = getelementptr i8, ptr %invariant.gep96, i64 %indvars.iv82
  store i8 %77, ptr %gep97, align 1
  br label %80

78:                                               ; preds = %._crit_edge.us
  %79 = trunc i32 %56 to i16
  %gep99 = getelementptr i16, ptr %invariant.gep98, i64 %indvars.iv82
  store i16 %79, ptr %gep99, align 2
  br label %80

80:                                               ; preds = %78, %72
  %indvars.iv.next83 = add nuw nsw i64 %indvars.iv82, 1
  %exitcond86.not = icmp eq i64 %indvars.iv.next83, %wide.trip.count85
  br i1 %exitcond86.not, label %._crit_edge76.us, label %.preheader.us, !llvm.loop !35

.lr.ph.us:                                        ; preds = %.lr.ph.us.preheader, %.lr.ph.us
  %indvars.iv = phi i64 [ 0, %.lr.ph.us.preheader ], [ %indvars.iv.next, %.lr.ph.us ]
  %.06573.us = phi i32 [ 0, %.lr.ph.us.preheader ], [ %89, %.lr.ph.us ]
  %81 = getelementptr inbounds nuw i16, ptr %32, i64 %indvars.iv
  %82 = load i16, ptr %81, align 2
  %83 = sext i16 %82 to i32
  %84 = add nsw i64 %47, %indvars.iv
  %85 = mul nsw i64 %84, %42
  %gep = getelementptr i8, ptr %invariant.gep, i64 %85
  %86 = load i8, ptr %gep, align 1
  %87 = zext i8 %86 to i32
  %88 = mul nsw i32 %87, %83
  %89 = add nsw i32 %88, %.06573.us
  %indvars.iv.next = add nuw nsw i64 %indvars.iv, 1
  %exitcond.not = icmp eq i64 %indvars.iv.next, %wide.trip.count
  br i1 %exitcond.not, label %._crit_edge.us, label %.lr.ph.us, !llvm.loop !36

.preheader.us:                                    ; preds = %.preheader72.us, %80
  %indvars.iv82 = phi i64 [ 0, %.preheader72.us ], [ %indvars.iv.next83, %80 ]
  %90 = load i16, ptr %14, align 8
  %.not = icmp eq i16 %90, 0
  br i1 %.not, label %._crit_edge.us, label %.lr.ph.us.preheader

.lr.ph.us.preheader:                              ; preds = %.preheader.us
  %wide.trip.count = zext i16 %90 to i64
  %invariant.gep = getelementptr i8, ptr %0, i64 %indvars.iv82
  br label %.lr.ph.us

._crit_edge76.us:                                 ; preds = %80
  %indvars.iv.next88 = add nuw nsw i64 %indvars.iv87, 1
  %exitcond93.not = icmp eq i64 %indvars.iv.next88, %wide.trip.count92
  br i1 %exitcond93.not, label %._crit_edge78, label %.preheader72.us, !llvm.loop !37

._crit_edge78:                                    ; preds = %._crit_edge76.us, %.preheader72.lr.ph, %9
  ret void
}